ARM GAS  C:\Users\GAOJIE~1\AppData\Local\Temp\ccEhVAqC.s 			page 1


   1              		.cpu cortex-m4
   2              		.arch armv7e-m
   3              		.fpu fpv4-sp-d16
   4              		.eabi_attribute 27, 1
   5              		.eabi_attribute 28, 1
   6              		.eabi_attribute 20, 1
   7              		.eabi_attribute 21, 1
   8              		.eabi_attribute 23, 3
   9              		.eabi_attribute 24, 1
  10              		.eabi_attribute 25, 1
  11              		.eabi_attribute 26, 1
  12              		.eabi_attribute 30, 1
  13              		.eabi_attribute 34, 1
  14              		.eabi_attribute 18, 4
  15              		.file	"gpio.c"
  16              		.text
  17              	.Ltext0:
  18              		.cfi_sections	.debug_frame
  19              		.section	.text.MX_GPIO_Init,"ax",%progbits
  20              		.align	1
  21              		.global	MX_GPIO_Init
  22              		.syntax unified
  23              		.thumb
  24              		.thumb_func
  26              	MX_GPIO_Init:
  27              	.LFB134:
  28              		.file 1 "Core/Src/gpio.c"
   1:Core/Src/gpio.c **** /* USER CODE BEGIN Header */
   2:Core/Src/gpio.c **** /**
   3:Core/Src/gpio.c ****   ******************************************************************************
   4:Core/Src/gpio.c ****   * @file    gpio.c
   5:Core/Src/gpio.c ****   * @brief   This file provides code for the configuration
   6:Core/Src/gpio.c ****   *          of all used GPIO pins.
   7:Core/Src/gpio.c ****   ******************************************************************************
   8:Core/Src/gpio.c ****   * @attention
   9:Core/Src/gpio.c ****   *
  10:Core/Src/gpio.c ****   * Copyright (c) 2024 STMicroelectronics.
  11:Core/Src/gpio.c ****   * All rights reserved.
  12:Core/Src/gpio.c ****   *
  13:Core/Src/gpio.c ****   * This software is licensed under terms that can be found in the LICENSE file
  14:Core/Src/gpio.c ****   * in the root directory of this software component.
  15:Core/Src/gpio.c ****   * If no LICENSE file comes with this software, it is provided AS-IS.
  16:Core/Src/gpio.c ****   *
  17:Core/Src/gpio.c ****   ******************************************************************************
  18:Core/Src/gpio.c ****   */
  19:Core/Src/gpio.c **** /* USER CODE END Header */
  20:Core/Src/gpio.c **** 
  21:Core/Src/gpio.c **** /* Includes ------------------------------------------------------------------*/
  22:Core/Src/gpio.c **** #include "gpio.h"
  23:Core/Src/gpio.c **** 
  24:Core/Src/gpio.c **** /* USER CODE BEGIN 0 */
  25:Core/Src/gpio.c **** 
  26:Core/Src/gpio.c **** /* USER CODE END 0 */
  27:Core/Src/gpio.c **** 
  28:Core/Src/gpio.c **** /*----------------------------------------------------------------------------*/
  29:Core/Src/gpio.c **** /* Configure GPIO                                                             */
  30:Core/Src/gpio.c **** /*----------------------------------------------------------------------------*/
ARM GAS  C:\Users\GAOJIE~1\AppData\Local\Temp\ccEhVAqC.s 			page 2


  31:Core/Src/gpio.c **** /* USER CODE BEGIN 1 */
  32:Core/Src/gpio.c **** 
  33:Core/Src/gpio.c **** /* USER CODE END 1 */
  34:Core/Src/gpio.c **** 
  35:Core/Src/gpio.c **** /** Configure pins as
  36:Core/Src/gpio.c ****         * Analog
  37:Core/Src/gpio.c ****         * Input
  38:Core/Src/gpio.c ****         * Output
  39:Core/Src/gpio.c ****         * EVENT_OUT
  40:Core/Src/gpio.c ****         * EXTI
  41:Core/Src/gpio.c **** */
  42:Core/Src/gpio.c **** void MX_GPIO_Init(void)
  43:Core/Src/gpio.c **** {
  29              		.loc 1 43 1 view -0
  30              		.cfi_startproc
  31              		@ args = 0, pretend = 0, frame = 40
  32              		@ frame_needed = 0, uses_anonymous_args = 0
  33 0000 2DE9F041 		push	{r4, r5, r6, r7, r8, lr}
  34              	.LCFI0:
  35              		.cfi_def_cfa_offset 24
  36              		.cfi_offset 4, -24
  37              		.cfi_offset 5, -20
  38              		.cfi_offset 6, -16
  39              		.cfi_offset 7, -12
  40              		.cfi_offset 8, -8
  41              		.cfi_offset 14, -4
  42 0004 8AB0     		sub	sp, sp, #40
  43              	.LCFI1:
  44              		.cfi_def_cfa_offset 64
  44:Core/Src/gpio.c **** 
  45:Core/Src/gpio.c ****   GPIO_InitTypeDef GPIO_InitStruct = {0};
  45              		.loc 1 45 3 view .LVU1
  46              		.loc 1 45 20 is_stmt 0 view .LVU2
  47 0006 0024     		movs	r4, #0
  48 0008 0594     		str	r4, [sp, #20]
  49 000a 0694     		str	r4, [sp, #24]
  50 000c 0794     		str	r4, [sp, #28]
  51 000e 0894     		str	r4, [sp, #32]
  52 0010 0994     		str	r4, [sp, #36]
  46:Core/Src/gpio.c **** 
  47:Core/Src/gpio.c ****   /* GPIO Ports Clock Enable */
  48:Core/Src/gpio.c ****   __HAL_RCC_GPIOC_CLK_ENABLE();
  53              		.loc 1 48 3 is_stmt 1 view .LVU3
  54              	.LBB2:
  55              		.loc 1 48 3 view .LVU4
  56 0012 0194     		str	r4, [sp, #4]
  57              		.loc 1 48 3 view .LVU5
  58 0014 344B     		ldr	r3, .L3
  59 0016 1A6B     		ldr	r2, [r3, #48]
  60 0018 42F00402 		orr	r2, r2, #4
  61 001c 1A63     		str	r2, [r3, #48]
  62              		.loc 1 48 3 view .LVU6
  63 001e 1A6B     		ldr	r2, [r3, #48]
  64 0020 02F00402 		and	r2, r2, #4
  65 0024 0192     		str	r2, [sp, #4]
  66              		.loc 1 48 3 view .LVU7
  67 0026 019A     		ldr	r2, [sp, #4]
ARM GAS  C:\Users\GAOJIE~1\AppData\Local\Temp\ccEhVAqC.s 			page 3


  68              	.LBE2:
  69              		.loc 1 48 3 view .LVU8
  49:Core/Src/gpio.c ****   __HAL_RCC_GPIOH_CLK_ENABLE();
  70              		.loc 1 49 3 view .LVU9
  71              	.LBB3:
  72              		.loc 1 49 3 view .LVU10
  73 0028 0294     		str	r4, [sp, #8]
  74              		.loc 1 49 3 view .LVU11
  75 002a 1A6B     		ldr	r2, [r3, #48]
  76 002c 42F08002 		orr	r2, r2, #128
  77 0030 1A63     		str	r2, [r3, #48]
  78              		.loc 1 49 3 view .LVU12
  79 0032 1A6B     		ldr	r2, [r3, #48]
  80 0034 02F08002 		and	r2, r2, #128
  81 0038 0292     		str	r2, [sp, #8]
  82              		.loc 1 49 3 view .LVU13
  83 003a 029A     		ldr	r2, [sp, #8]
  84              	.LBE3:
  85              		.loc 1 49 3 view .LVU14
  50:Core/Src/gpio.c ****   __HAL_RCC_GPIOA_CLK_ENABLE();
  86              		.loc 1 50 3 view .LVU15
  87              	.LBB4:
  88              		.loc 1 50 3 view .LVU16
  89 003c 0394     		str	r4, [sp, #12]
  90              		.loc 1 50 3 view .LVU17
  91 003e 1A6B     		ldr	r2, [r3, #48]
  92 0040 42F00102 		orr	r2, r2, #1
  93 0044 1A63     		str	r2, [r3, #48]
  94              		.loc 1 50 3 view .LVU18
  95 0046 1A6B     		ldr	r2, [r3, #48]
  96 0048 02F00102 		and	r2, r2, #1
  97 004c 0392     		str	r2, [sp, #12]
  98              		.loc 1 50 3 view .LVU19
  99 004e 039A     		ldr	r2, [sp, #12]
 100              	.LBE4:
 101              		.loc 1 50 3 view .LVU20
  51:Core/Src/gpio.c ****   __HAL_RCC_GPIOB_CLK_ENABLE();
 102              		.loc 1 51 3 view .LVU21
 103              	.LBB5:
 104              		.loc 1 51 3 view .LVU22
 105 0050 0494     		str	r4, [sp, #16]
 106              		.loc 1 51 3 view .LVU23
 107 0052 1A6B     		ldr	r2, [r3, #48]
 108 0054 42F00202 		orr	r2, r2, #2
 109 0058 1A63     		str	r2, [r3, #48]
 110              		.loc 1 51 3 view .LVU24
 111 005a 1B6B     		ldr	r3, [r3, #48]
 112 005c 03F00203 		and	r3, r3, #2
 113 0060 0493     		str	r3, [sp, #16]
 114              		.loc 1 51 3 view .LVU25
 115 0062 049B     		ldr	r3, [sp, #16]
 116              	.LBE5:
 117              		.loc 1 51 3 view .LVU26
  52:Core/Src/gpio.c **** 
  53:Core/Src/gpio.c ****   /*Configure GPIO pin Output Level */
  54:Core/Src/gpio.c ****   HAL_GPIO_WritePin(led_GPIO_Port, led_Pin, GPIO_PIN_RESET);
 118              		.loc 1 54 3 view .LVU27
ARM GAS  C:\Users\GAOJIE~1\AppData\Local\Temp\ccEhVAqC.s 			page 4


 119 0064 DFF88C80 		ldr	r8, .L3+12
 120 0068 2246     		mov	r2, r4
 121 006a 4FF40051 		mov	r1, #8192
 122 006e 4046     		mov	r0, r8
 123 0070 FFF7FEFF 		bl	HAL_GPIO_WritePin
 124              	.LVL0:
  55:Core/Src/gpio.c **** 
  56:Core/Src/gpio.c ****   /*Configure GPIO pin Output Level */
  57:Core/Src/gpio.c ****   HAL_GPIO_WritePin(GPIOA, STBY_Pin|AIN1_Pin, GPIO_PIN_RESET);
 125              		.loc 1 57 3 view .LVU28
 126 0074 1D4F     		ldr	r7, .L3+4
 127 0076 2246     		mov	r2, r4
 128 0078 4FF48871 		mov	r1, #272
 129 007c 3846     		mov	r0, r7
 130 007e FFF7FEFF 		bl	HAL_GPIO_WritePin
 131              	.LVL1:
  58:Core/Src/gpio.c **** 
  59:Core/Src/gpio.c ****   /*Configure GPIO pin Output Level */
  60:Core/Src/gpio.c ****   HAL_GPIO_WritePin(GPIOB, AIN2_Pin|BIN1_Pin|BIN2_Pin|CS_Pin, GPIO_PIN_RESET);
 132              		.loc 1 60 3 view .LVU29
 133 0082 1B4E     		ldr	r6, .L3+8
 134 0084 2246     		mov	r2, r4
 135 0086 4FF46241 		mov	r1, #57856
 136 008a 3046     		mov	r0, r6
 137 008c FFF7FEFF 		bl	HAL_GPIO_WritePin
 138              	.LVL2:
  61:Core/Src/gpio.c **** 
  62:Core/Src/gpio.c ****   /*Configure GPIO pin : PtPin */
  63:Core/Src/gpio.c ****   GPIO_InitStruct.Pin = led_Pin;
 139              		.loc 1 63 3 view .LVU30
 140              		.loc 1 63 23 is_stmt 0 view .LVU31
 141 0090 4FF40053 		mov	r3, #8192
 142 0094 0593     		str	r3, [sp, #20]
  64:Core/Src/gpio.c ****   GPIO_InitStruct.Mode = GPIO_MODE_OUTPUT_PP;
 143              		.loc 1 64 3 is_stmt 1 view .LVU32
 144              		.loc 1 64 24 is_stmt 0 view .LVU33
 145 0096 0125     		movs	r5, #1
 146 0098 0695     		str	r5, [sp, #24]
  65:Core/Src/gpio.c ****   GPIO_InitStruct.Pull = GPIO_NOPULL;
 147              		.loc 1 65 3 is_stmt 1 view .LVU34
 148              		.loc 1 65 24 is_stmt 0 view .LVU35
 149 009a 0794     		str	r4, [sp, #28]
  66:Core/Src/gpio.c ****   GPIO_InitStruct.Speed = GPIO_SPEED_FREQ_LOW;
 150              		.loc 1 66 3 is_stmt 1 view .LVU36
 151              		.loc 1 66 25 is_stmt 0 view .LVU37
 152 009c 0894     		str	r4, [sp, #32]
  67:Core/Src/gpio.c ****   HAL_GPIO_Init(led_GPIO_Port, &GPIO_InitStruct);
 153              		.loc 1 67 3 is_stmt 1 view .LVU38
 154 009e 05A9     		add	r1, sp, #20
 155 00a0 4046     		mov	r0, r8
 156 00a2 FFF7FEFF 		bl	HAL_GPIO_Init
 157              	.LVL3:
  68:Core/Src/gpio.c **** 
  69:Core/Src/gpio.c ****   /*Configure GPIO pins : PAPin PAPin */
  70:Core/Src/gpio.c ****   GPIO_InitStruct.Pin = STBY_Pin|AIN1_Pin;
 158              		.loc 1 70 3 view .LVU39
 159              		.loc 1 70 23 is_stmt 0 view .LVU40
ARM GAS  C:\Users\GAOJIE~1\AppData\Local\Temp\ccEhVAqC.s 			page 5


 160 00a6 4FF48873 		mov	r3, #272
 161 00aa 0593     		str	r3, [sp, #20]
  71:Core/Src/gpio.c ****   GPIO_InitStruct.Mode = GPIO_MODE_OUTPUT_PP;
 162              		.loc 1 71 3 is_stmt 1 view .LVU41
 163              		.loc 1 71 24 is_stmt 0 view .LVU42
 164 00ac 0695     		str	r5, [sp, #24]
  72:Core/Src/gpio.c ****   GPIO_InitStruct.Pull = GPIO_NOPULL;
 165              		.loc 1 72 3 is_stmt 1 view .LVU43
 166              		.loc 1 72 24 is_stmt 0 view .LVU44
 167 00ae 0794     		str	r4, [sp, #28]
  73:Core/Src/gpio.c ****   GPIO_InitStruct.Speed = GPIO_SPEED_FREQ_LOW;
 168              		.loc 1 73 3 is_stmt 1 view .LVU45
 169              		.loc 1 73 25 is_stmt 0 view .LVU46
 170 00b0 0894     		str	r4, [sp, #32]
  74:Core/Src/gpio.c ****   HAL_GPIO_Init(GPIOA, &GPIO_InitStruct);
 171              		.loc 1 74 3 is_stmt 1 view .LVU47
 172 00b2 05A9     		add	r1, sp, #20
 173 00b4 3846     		mov	r0, r7
 174 00b6 FFF7FEFF 		bl	HAL_GPIO_Init
 175              	.LVL4:
  75:Core/Src/gpio.c **** 
  76:Core/Src/gpio.c ****   /*Configure GPIO pin : PtPin */
  77:Core/Src/gpio.c ****   GPIO_InitStruct.Pin = INT_Pin;
 176              		.loc 1 77 3 view .LVU48
 177              		.loc 1 77 23 is_stmt 0 view .LVU49
 178 00ba 4FF48053 		mov	r3, #4096
 179 00be 0593     		str	r3, [sp, #20]
  78:Core/Src/gpio.c ****   GPIO_InitStruct.Mode = GPIO_MODE_INPUT;
 180              		.loc 1 78 3 is_stmt 1 view .LVU50
 181              		.loc 1 78 24 is_stmt 0 view .LVU51
 182 00c0 0694     		str	r4, [sp, #24]
  79:Core/Src/gpio.c ****   GPIO_InitStruct.Pull = GPIO_PULLUP;
 183              		.loc 1 79 3 is_stmt 1 view .LVU52
 184              		.loc 1 79 24 is_stmt 0 view .LVU53
 185 00c2 0795     		str	r5, [sp, #28]
  80:Core/Src/gpio.c ****   HAL_GPIO_Init(INT_GPIO_Port, &GPIO_InitStruct);
 186              		.loc 1 80 3 is_stmt 1 view .LVU54
 187 00c4 05A9     		add	r1, sp, #20
 188 00c6 3046     		mov	r0, r6
 189 00c8 FFF7FEFF 		bl	HAL_GPIO_Init
 190              	.LVL5:
  81:Core/Src/gpio.c **** 
  82:Core/Src/gpio.c ****   /*Configure GPIO pins : PBPin PBPin PBPin PBPin */
  83:Core/Src/gpio.c ****   GPIO_InitStruct.Pin = AIN2_Pin|BIN1_Pin|BIN2_Pin|CS_Pin;
 191              		.loc 1 83 3 view .LVU55
 192              		.loc 1 83 23 is_stmt 0 view .LVU56
 193 00cc 4FF46243 		mov	r3, #57856
 194 00d0 0593     		str	r3, [sp, #20]
  84:Core/Src/gpio.c ****   GPIO_InitStruct.Mode = GPIO_MODE_OUTPUT_PP;
 195              		.loc 1 84 3 is_stmt 1 view .LVU57
 196              		.loc 1 84 24 is_stmt 0 view .LVU58
 197 00d2 0695     		str	r5, [sp, #24]
  85:Core/Src/gpio.c ****   GPIO_InitStruct.Pull = GPIO_NOPULL;
 198              		.loc 1 85 3 is_stmt 1 view .LVU59
 199              		.loc 1 85 24 is_stmt 0 view .LVU60
 200 00d4 0794     		str	r4, [sp, #28]
  86:Core/Src/gpio.c ****   GPIO_InitStruct.Speed = GPIO_SPEED_FREQ_LOW;
ARM GAS  C:\Users\GAOJIE~1\AppData\Local\Temp\ccEhVAqC.s 			page 6


 201              		.loc 1 86 3 is_stmt 1 view .LVU61
 202              		.loc 1 86 25 is_stmt 0 view .LVU62
 203 00d6 0894     		str	r4, [sp, #32]
  87:Core/Src/gpio.c ****   HAL_GPIO_Init(GPIOB, &GPIO_InitStruct);
 204              		.loc 1 87 3 is_stmt 1 view .LVU63
 205 00d8 05A9     		add	r1, sp, #20
 206 00da 3046     		mov	r0, r6
 207 00dc FFF7FEFF 		bl	HAL_GPIO_Init
 208              	.LVL6:
  88:Core/Src/gpio.c **** 
  89:Core/Src/gpio.c **** }
 209              		.loc 1 89 1 is_stmt 0 view .LVU64
 210 00e0 0AB0     		add	sp, sp, #40
 211              	.LCFI2:
 212              		.cfi_def_cfa_offset 24
 213              		@ sp needed
 214 00e2 BDE8F081 		pop	{r4, r5, r6, r7, r8, pc}
 215              	.L4:
 216 00e6 00BF     		.align	2
 217              	.L3:
 218 00e8 00380240 		.word	1073887232
 219 00ec 00000240 		.word	1073872896
 220 00f0 00040240 		.word	1073873920
 221 00f4 00080240 		.word	1073874944
 222              		.cfi_endproc
 223              	.LFE134:
 225              		.text
 226              	.Letext0:
 227              		.file 2 "d:\\gcc-arm-none-eabi\\arm-none-eabi\\include\\machine\\_default_types.h"
 228              		.file 3 "d:\\gcc-arm-none-eabi\\arm-none-eabi\\include\\sys\\_stdint.h"
 229              		.file 4 "Drivers/CMSIS/Device/ST/STM32F4xx/Include/stm32f401xc.h"
 230              		.file 5 "Drivers/STM32F4xx_HAL_Driver/Inc/stm32f4xx_hal_gpio.h"
ARM GAS  C:\Users\GAOJIE~1\AppData\Local\Temp\ccEhVAqC.s 			page 7

